target datalayout = "e-m:e-p270:32:32-p271:32:32-p272:64:64-i64:64-i128:128-f80:128-n8:16:32:64-S128"
target triple = "x86_64-pc-linux-gnu"

%struct.__va_list_tag = type { i32, i32, ptr, ptr }
%struct.CBaseStorageVariant = type { i16, i16, i16, %union.vValue, ptr }
%union.vValue = type { %struct.vt_array }
%struct.vt_array = type { %struct.vt_vector, i16, i16, i32, ptr }
%struct.vt_vector = type { i32, %union.anon.0 }
%union.anon.0 = type { ptr }

@hf_mswsp_rangeboundry_ultype = internal global i32 0, align 4
@hf_mswsp_rangeboundry_labelpresent = internal global i32 0, align 4
@hf_mswsp_rangeboundry_cclabel = internal global i32 0, align 4
@hf_mswsp_rangeboundry_label = internal global i32 0, align 4
@ett_RANGEBOUNDARY = internal global i32 0, align 4
@.str.1338 = private unnamed_addr constant [14 x i8] c": Type 0x%08x\00", align 1
@.str.1339 = private unnamed_addr constant [6 x i8] c"prVal\00", align 1
@.str.1340 = private unnamed_addr constant [20 x i8] c"paddingLabelPresent\00", align 1
@.str.1341 = private unnamed_addr constant [13 x i8] c" Label: \22%s\22\00", align 1
@.str.1342 = private unnamed_addr constant [9 x i8] c" Val: %s\00", align 1

; Function Attrs: alwaysinline nounwind
define internal ptr @memset.inline(ptr %0, i32 %1, i64 %2) #8 {
  %4 = alloca ptr, align 8
  %5 = alloca i32, align 4
  %6 = alloca i64, align 8
  store ptr %0, ptr %4, align 8
  store i32 %1, ptr %5, align 4
  store i64 %2, ptr %6, align 8
  %7 = load ptr, ptr %4, align 8
  %8 = load i32, ptr %5, align 4
  %9 = load i64, ptr %6, align 8
  %10 = load ptr, ptr %4, align 8
  %11 = call i64 @llvm.objectsize.i64.p0(ptr %10, i1 false, i1 true, i1 true)
  %12 = call ptr @__memset_chk(ptr noundef %7, i32 noundef %8, i64 noundef %9, i64 noundef %11) #11
  ret ptr %12
}

; Function Attrs: null_pointer_is_valid sspstrong uwtable
define internal i32 @parse_RANGEBOUNDARY(ptr noundef %0, ptr noundef %1, i32 noundef %2, ptr noundef %3, ptr noundef %4, ptr noundef %5, ...) #0 {
  %7 = alloca ptr, align 8
  %8 = alloca ptr, align 8
  %9 = alloca i32, align 4
  %10 = alloca ptr, align 8
  %11 = alloca ptr, align 8
  %12 = alloca ptr, align 8
  %13 = alloca i32, align 4
  %14 = alloca i8, align 1
  %15 = alloca ptr, align 8
  %16 = alloca ptr, align 8
  %17 = alloca ptr, align 8
  %18 = alloca %struct.CBaseStorageVariant, align 8
  %19 = alloca [1 x %struct.__va_list_tag], align 16
  %20 = alloca i32, align 4
  %21 = alloca ptr, align 8
  store ptr %0, ptr %7, align 8
  store ptr %1, ptr %8, align 8
  store i32 %2, ptr %9, align 4
  store ptr %3, ptr %10, align 8
  store ptr %4, ptr %11, align 8
  store ptr %5, ptr %12, align 8
  call void @llvm.lifetime.start.p0(i64 4, ptr %13) #11
  call void @llvm.lifetime.start.p0(i64 1, ptr %14) #11
  call void @llvm.lifetime.start.p0(i64 8, ptr %15) #11
  call void @llvm.lifetime.start.p0(i64 8, ptr %16) #11
  call void @llvm.lifetime.start.p0(i64 8, ptr %17) #11
  call void @llvm.lifetime.start.p0(i64 48, ptr %18) #11
  call void @llvm.lifetime.start.p0(i64 24, ptr %19) #11
  %22 = getelementptr inbounds [1 x %struct.__va_list_tag], ptr %19, i64 0, i64 0
  call void @llvm.va_start.p0(ptr %22)
  %23 = call ptr @wmem_packet_scope()
  %24 = load ptr, ptr %12, align 8
  %25 = getelementptr inbounds [1 x %struct.__va_list_tag], ptr %19, i64 0, i64 0
  %26 = call noalias ptr @wmem_strdup_vprintf(ptr noundef %23, ptr noundef %24, ptr noundef %25)
  store ptr %26, ptr %17, align 8
  %27 = getelementptr inbounds [1 x %struct.__va_list_tag], ptr %19, i64 0, i64 0
  call void @llvm.va_end.p0(ptr %27)
  %28 = load ptr, ptr %10, align 8
  %29 = load ptr, ptr %7, align 8
  %30 = load i32, ptr %9, align 4
  %31 = load i32, ptr @ett_RANGEBOUNDARY, align 4
  %32 = load ptr, ptr %17, align 8
  %33 = call ptr @proto_tree_add_subtree(ptr noundef %28, ptr noundef %29, i32 noundef %30, i32 noundef 0, i32 noundef %31, ptr noundef %15, ptr noundef %32)
  store ptr %33, ptr %16, align 8
  %34 = load ptr, ptr %7, align 8
  %35 = load i32, ptr %9, align 4
  %36 = call i32 @tvb_get_letohl(ptr noundef %34, i32 noundef %35)
  store i32 %36, ptr %13, align 4
  %37 = load ptr, ptr %16, align 8
  %38 = load i32, ptr @hf_mswsp_rangeboundry_ultype, align 4
  %39 = load ptr, ptr %7, align 8
  %40 = load i32, ptr %9, align 4
  %41 = call ptr @proto_tree_add_item(ptr noundef %37, i32 noundef %38, ptr noundef %39, i32 noundef %40, i32 noundef 4, i32 noundef -2147483648)
  %42 = load ptr, ptr %15, align 8
  %43 = load i32, ptr %13, align 4
  call void (ptr, ptr, ...) @proto_item_append_text(ptr noundef %42, ptr noundef @.str.1338, i32 noundef %43)
  %44 = load i32, ptr %9, align 4
  %45 = add i32 %44, 4
  store i32 %45, ptr %9, align 4
  %46 = call ptr @memset.inline(ptr noundef %18, i32 noundef 0, i64 noundef 48) #11
  %47 = load ptr, ptr %7, align 8
  %48 = load ptr, ptr %8, align 8
  %49 = load i32, ptr %9, align 4
  %50 = load ptr, ptr %16, align 8
  %51 = load ptr, ptr %11, align 8
  %52 = call i32 @parse_CBaseStorageVariant(ptr noundef %47, ptr noundef %48, i32 noundef %49, ptr noundef %50, ptr noundef %51, ptr noundef %18, ptr noundef @.str.1339)
  store i32 %52, ptr %9, align 4
  %53 = load ptr, ptr %7, align 8
  %54 = load i32, ptr %9, align 4
  %55 = call zeroext i8 @tvb_get_uint8(ptr noundef %53, i32 noundef %54)
  store i8 %55, ptr %14, align 1
  %56 = load ptr, ptr %16, align 8
  %57 = load i32, ptr @hf_mswsp_rangeboundry_labelpresent, align 4
  %58 = load ptr, ptr %7, align 8
  %59 = load i32, ptr %9, align 4
  %60 = call ptr @proto_tree_add_item(ptr noundef %56, i32 noundef %57, ptr noundef %58, i32 noundef %59, i32 noundef 1, i32 noundef -2147483648)
  %61 = load i32, ptr %9, align 4
  %62 = add i32 %61, 1
  store i32 %62, ptr %9, align 4
  %63 = load i8, ptr %14, align 1
  %64 = icmp ne i8 %63, 0
  br i1 %64, label %65, label %94

65:                                               ; preds = %6
  call void @llvm.lifetime.start.p0(i64 4, ptr %20) #11
  call void @llvm.lifetime.start.p0(i64 8, ptr %21) #11
  %66 = load ptr, ptr %7, align 8
  %67 = load i32, ptr %9, align 4
  %68 = load ptr, ptr %11, align 8
  %69 = call i32 (ptr, i32, i32, ptr, ptr, ...) @parse_padding(ptr noundef %66, i32 noundef %67, i32 noundef 4, ptr noundef %68, ptr noundef @.str.1340)
  store i32 %69, ptr %9, align 4
  %70 = load ptr, ptr %7, align 8
  %71 = load i32, ptr %9, align 4
  %72 = call i32 @tvb_get_letohl(ptr noundef %70, i32 noundef %71)
  store i32 %72, ptr %20, align 4
  %73 = load ptr, ptr %16, align 8
  %74 = load i32, ptr @hf_mswsp_rangeboundry_cclabel, align 4
  %75 = load ptr, ptr %7, align 8
  %76 = load i32, ptr %9, align 4
  %77 = call ptr @proto_tree_add_item_ret_uint(ptr noundef %73, i32 noundef %74, ptr noundef %75, i32 noundef %76, i32 noundef 4, i32 noundef -2147483648, ptr noundef %20)
  %78 = load i32, ptr %9, align 4
  %79 = add i32 %78, 4
  store i32 %79, ptr %9, align 4
  %80 = load ptr, ptr %16, align 8
  %81 = load i32, ptr @hf_mswsp_rangeboundry_label, align 4
  %82 = load ptr, ptr %7, align 8
  %83 = load i32, ptr %9, align 4
  %84 = load i32, ptr %20, align 4
  %85 = mul i32 2, %84
  %86 = call ptr @wmem_packet_scope()
  %87 = call ptr @proto_tree_add_item_ret_string(ptr noundef %80, i32 noundef %81, ptr noundef %82, i32 noundef %83, i32 noundef %85, i32 noundef -2147483642, ptr noundef %86, ptr noundef %21)
  %88 = load ptr, ptr %15, align 8
  %89 = load ptr, ptr %21, align 8
  call void (ptr, ptr, ...) @proto_item_append_text(ptr noundef %88, ptr noundef @.str.1341, ptr noundef %89)
  %90 = load i32, ptr %20, align 4
  %91 = mul i32 2, %90
  %92 = load i32, ptr %9, align 4
  %93 = add i32 %92, %91
  store i32 %93, ptr %9, align 4
  call void @llvm.lifetime.end.p0(i64 8, ptr %21) #11
  call void @llvm.lifetime.end.p0(i64 4, ptr %20) #11
  br label %94

94:                                               ; preds = %65, %6
  %95 = load ptr, ptr %15, align 8
  %96 = call ptr @str_CBaseStorageVariant(ptr noundef %18, i1 noundef zeroext true)
  call void (ptr, ptr, ...) @proto_item_append_text(ptr noundef %95, ptr noundef @.str.1342, ptr noundef %96)
  %97 = load ptr, ptr %15, align 8
  %98 = load ptr, ptr %7, align 8
  %99 = load i32, ptr %9, align 4
  call void @proto_item_set_end(ptr noundef %97, ptr noundef %98, i32 noundef %99)
  %100 = load i32, ptr %9, align 4
  call void @llvm.lifetime.end.p0(i64 24, ptr %19) #11
  call void @llvm.lifetime.end.p0(i64 48, ptr %18) #11
  call void @llvm.lifetime.end.p0(i64 8, ptr %17) #11
  call void @llvm.lifetime.end.p0(i64 8, ptr %16) #11
  call void @llvm.lifetime.end.p0(i64 8, ptr %15) #11
  call void @llvm.lifetime.end.p0(i64 1, ptr %14) #11
  call void @llvm.lifetime.end.p0(i64 4, ptr %13) #11
  ret i32 %100
}