; Function Attrs: null_pointer_is_valid sspstrong uwtable
define internal i32 @parse_RANGEBOUNDARY(ptr noundef %0, ptr noundef %1, i32 noundef %2, ptr noundef %3, ptr noundef %4, ptr readnone captures(none) %5, ...) unnamed_addr #0 {
  %7 = alloca ptr, align 8
  %8 = alloca %struct.CBaseStorageVariant, align 8
  %9 = alloca [1 x %struct.__va_list_tag], align 16
  %10 = alloca i32, align 4
  %11 = alloca ptr, align 8
  call void @llvm.lifetime.start.p0(i64 8, ptr nonnull %7) #11
  call void @llvm.lifetime.start.p0(i64 48, ptr nonnull %8) #11
  call void @llvm.lifetime.start.p0(i64 24, ptr nonnull %9) #11
  call void @llvm.va_start.p0(ptr nonnull %9)
  %12 = call ptr @wmem_packet_scope()
  %13 = call noalias ptr @wmem_strdup_vprintf(ptr noundef %12, ptr noundef nonnull @.str.1337, ptr noundef nonnull %9)
  call void @llvm.va_end.p0(ptr nonnull %9)
  %14 = load i32, ptr @ett_RANGEBOUNDARY, align 4
  %15 = call ptr @proto_tree_add_subtree(ptr noundef %3, ptr noundef %0, i32 noundef %2, i32 noundef 0, i32 noundef %14, ptr noundef nonnull %7, ptr noundef %13)
  %16 = call i32 @tvb_get_letohl(ptr noundef %0, i32 noundef %2)
  %17 = load i32, ptr @hf_mswsp_rangeboundry_ultype, align 4
  %18 = call ptr @proto_tree_add_item(ptr noundef %15, i32 noundef %17, ptr noundef %0, i32 noundef %2, i32 noundef 4, i32 noundef -2147483648)
  %19 = load ptr, ptr %7, align 8
  call void (ptr, ptr, ...) @proto_item_append_text(ptr noundef %19, ptr noundef nonnull @.str.1338, i32 noundef %16)
  %20 = add i32 %2, 4
  call void @llvm.memset.p0.i64(ptr noundef nonnull align 8 dereferenceable(48) %8, i8 noundef 0, i64 noundef 48, i1 noundef false) #11
  %21 = call fastcc i32 @parse_CBaseStorageVariant(ptr noundef %0, ptr noundef %1, i32 noundef %20, ptr noundef %15, ptr noundef nonnull %8, ptr noundef nonnull @.str.1339)
  %22 = call zeroext i8 @tvb_get_uint8(ptr noundef %0, i32 noundef %21)
  %23 = load i32, ptr @hf_mswsp_rangeboundry_labelpresent, align 4
  %24 = call ptr @proto_tree_add_item(ptr noundef %15, i32 noundef %23, ptr noundef %0, i32 noundef %21, i32 noundef 1, i32 noundef -2147483648)
  %25 = add i32 %21, 1
  %.not = icmp eq i8 %22, 0
  br i1 %.not, label %42, label %26

26:                                               ; preds = %6
  call void @llvm.lifetime.start.p0(i64 4, ptr nonnull %10) #11
  call void @llvm.lifetime.start.p0(i64 8, ptr nonnull %11) #11
  %27 = call i32 (ptr, i32, i32, ptr, ptr, ...) @parse_padding(ptr noundef %0, i32 noundef %25, i32 noundef 4, ptr noundef %4, ptr noundef nonnull @.str.1340)
  %28 = call i32 @tvb_get_letohl(ptr noundef %0, i32 noundef %27)
  store i32 %28, ptr %10, align 4
  %29 = load i32, ptr @hf_mswsp_rangeboundry_cclabel, align 4
  %30 = call ptr @proto_tree_add_item_ret_uint(ptr noundef %15, i32 noundef %29, ptr noundef %0, i32 noundef %27, i32 noundef 4, i32 noundef -2147483648, ptr noundef nonnull %10)
  %31 = add i32 %27, 4
  %32 = load i32, ptr @hf_mswsp_rangeboundry_label, align 4
  %33 = load i32, ptr %10, align 4
  %34 = shl i32 %33, 1
  %35 = call ptr @wmem_packet_scope()
  %36 = call ptr @proto_tree_add_item_ret_string(ptr noundef %15, i32 noundef %32, ptr noundef %0, i32 noundef %31, i32 noundef %34, i32 noundef -2147483642, ptr noundef %35, ptr noundef nonnull %11)
  %37 = load ptr, ptr %7, align 8
  %38 = load ptr, ptr %11, align 8
  call void (ptr, ptr, ...) @proto_item_append_text(ptr noundef %37, ptr noundef nonnull @.str.1341, ptr noundef %38)
  %39 = load i32, ptr %10, align 4
  %40 = shl i32 %39, 1
  %41 = add i32 %40, %31
  call void @llvm.lifetime.end.p0(i64 8, ptr nonnull %11) #11
  call void @llvm.lifetime.end.p0(i64 4, ptr nonnull %10) #11
  br label %42

42:                                               ; preds = %26, %6
  %.0 = phi i32 [ %41, %26 ], [ %25, %6 ]
  %43 = load ptr, ptr %7, align 8
  %44 = call fastcc ptr @str_CBaseStorageVariant(ptr noundef nonnull %8, i1 noundef zeroext true)
  call void (ptr, ptr, ...) @proto_item_append_text(ptr noundef %43, ptr noundef nonnull @.str.1342, ptr noundef %44)
  %45 = load ptr, ptr %7, align 8
  call void @proto_item_set_end(ptr noundef %45, ptr noundef %0, i32 noundef %.0)
  call void @llvm.lifetime.end.p0(i64 24, ptr nonnull %9) #11
  call void @llvm.lifetime.end.p0(i64 48, ptr nonnull %8) #11
  call void @llvm.lifetime.end.p0(i64 8, ptr nonnull %7) #11
  ret i32 %.0
}